; Function Attrs: mustprogress noinline uwtable
define dso_local noundef zeroext i1 @_ZN4absl5Mutex11TryLockSlowEv(ptr noundef nonnull align 8 dereferenceable(8) %0) local_unnamed_addr #11 align 2 {
  %2 = load atomic i64, ptr %0 monotonic, align 8
  %3 = and i64 %2, 9
  %4 = icmp eq i64 %3, 0
  br i1 %4, label %_ZNSt13__atomic_baseIlE23compare_exchange_strongERllSt12memory_orderS2_.exit, label %8

_ZNSt13__atomic_baseIlE23compare_exchange_strongERllSt12memory_orderS2_.exit: ; preds = %1
  %5 = or disjoint i64 %2, 8
  %6 = cmpxchg ptr %0, i64 %2, i64 %5 acquire monotonic, align 8
  %7 = extractvalue { i64, i1 } %6, 1
  br i1 %7, label %9, label %8

8:                                                ; preds = %_ZNSt13__atomic_baseIlE23compare_exchange_strongERllSt12memory_orderS2_.exit, %1
  br label %9

9:                                                ; preds = %_ZNSt13__atomic_baseIlE23compare_exchange_strongERllSt12memory_orderS2_.exit, %8
  %.sink = phi i32 [ 1, %8 ], [ 0, %_ZNSt13__atomic_baseIlE23compare_exchange_strongERllSt12memory_orderS2_.exit ]
  %.0 = phi i1 [ false, %8 ], [ true, %_ZNSt13__atomic_baseIlE23compare_exchange_strongERllSt12memory_orderS2_.exit ]
  tail call fastcc void @_ZN4abslL14PostSynchEventEPvi(ptr noundef %0, i32 noundef %.sink)
  ret i1 %.0
}